target datalayout = "e-m:e-p270:32:32-p271:32:32-p272:64:64-i64:64-i128:128-f80:128-n8:16:32:64-S128"
target triple = "x86_64-unknown-linux-gnu"

%"class.google::protobuf::internal::InternalMetadata" = type { i64 }
%"class.google::protobuf::internal::HasBits" = type { [1 x i32] }
%"class.google::protobuf::internal::CachedSize" = type { i32 }
%union.anon.11 = type { %"struct.google::protobuf::EnumDescriptorProto_EnumReservedRange::Impl_" }
%"struct.google::protobuf::EnumDescriptorProto_EnumReservedRange::Impl_" = type { %"class.google::protobuf::internal::HasBits", %"class.google::protobuf::internal::CachedSize", i32, i32 }
%"class.google::protobuf::Message" = type { %"class.google::protobuf::MessageLite" }
%"class.google::protobuf::MessageLite" = type { ptr, %"class.google::protobuf::internal::InternalMetadata" }
%"struct.google::protobuf::internal::InternalMetadata::Container" = type { %"struct.google::protobuf::internal::InternalMetadata::ContainerBase", %"class.google::protobuf::UnknownFieldSet" }
%"struct.google::protobuf::internal::InternalMetadata::ContainerBase" = type { ptr }
%"class.google::protobuf::UnknownFieldSet" = type { %"class.std::vector" }
%"class.std::vector" = type { %"struct.std::_Vector_base" }
%"struct.std::_Vector_base" = type { %"struct.std::_Vector_base<google::protobuf::UnknownField, std::allocator<google::protobuf::UnknownField>>::_Vector_impl" }
%"struct.std::_Vector_base<google::protobuf::UnknownField, std::allocator<google::protobuf::UnknownField>>::_Vector_impl" = type { %"struct.std::_Vector_base<google::protobuf::UnknownField, std::allocator<google::protobuf::UnknownField>>::_Vector_impl_data" }
%"struct.std::_Vector_base<google::protobuf::UnknownField, std::allocator<google::protobuf::UnknownField>>::_Vector_impl_data" = type { ptr, ptr, ptr }
%"class.absl::lts_20230802::log_internal::NullStream" = type { i8 }
%"class.google::protobuf::EnumDescriptorProto_EnumReservedRange" = type { %"class.google::protobuf::Message", %union.anon.11 }

; Function Attrs: mustprogress nounwind uwtable
define linkonce_odr hidden noundef ptr @_ZNK6google8protobuf8internal16InternalMetadata8PtrValueINS2_9ContainerINS0_15UnknownFieldSetEEEEEPT_v(ptr noundef nonnull align 8 dereferenceable(8) %this) #5 comdat align 2 {
entry:
  %this.addr = alloca ptr, align 8
  store ptr %this, ptr %this.addr, align 8
  %this1 = load ptr, ptr %this.addr, align 8
  %ptr_ = getelementptr inbounds %"class.google::protobuf::internal::InternalMetadata", ptr %this1, i32 0, i32 0
  %0 = load i64, ptr %ptr_, align 8
  %and = and i64 %0, -2
  %1 = inttoptr i64 %and to ptr
  ret ptr %1
}

; Function Attrs: mustprogress nounwind uwtable
define linkonce_odr hidden noundef nonnull align 1 dereferenceable(1) ptr @_ZN4absl12lts_2023080212log_internal10NullStream14InternalStreamEv(ptr noundef nonnull align 1 dereferenceable(1) %this) #5 comdat align 2 {
entry:
  %this.addr = alloca ptr, align 8
  store ptr %this, ptr %this.addr, align 8
  %this1 = load ptr, ptr %this.addr, align 8
  ret ptr %this1
}

; Function Attrs: mustprogress uwtable
define void @_ZN6google8protobuf37EnumDescriptorProto_EnumReservedRange9MergeImplERNS0_11MessageLiteERKS2_(ptr noundef nonnull align 8 dereferenceable(16) %to_msg, ptr noundef nonnull align 8 dereferenceable(16) %from_msg) #4 align 2 {
entry:
  %this.addr.i31 = alloca ptr, align 8
  %this.addr.i29 = alloca ptr, align 8
  %this.addr.i24 = alloca ptr, align 8
  %index.addr.i25 = alloca i32, align 4
  %this.addr.i22 = alloca ptr, align 8
  %index.addr.i = alloca i32, align 4
  %this.addr.i.i = alloca ptr, align 8
  %retval.i = alloca ptr, align 8
  %this.addr.i18 = alloca ptr, align 8
  %default_instance.addr.i = alloca ptr, align 8
  %this.addr.i15 = alloca ptr, align 8
  %this.addr.i = alloca ptr, align 8
  %other.addr.i = alloca ptr, align 8
  %to_msg.addr = alloca ptr, align 8
  %from_msg.addr = alloca ptr, align 8
  %_this = alloca ptr, align 8
  %from = alloca ptr, align 8
  %ref.tmp = alloca %"class.absl::lts_20230802::log_internal::NullStream", align 1
  %cached_has_bits = alloca i32, align 4
  store ptr %to_msg, ptr %to_msg.addr, align 8
  store ptr %from_msg, ptr %from_msg.addr, align 8
  %0 = load ptr, ptr %to_msg.addr, align 8
  store ptr %0, ptr %_this, align 8
  %1 = load ptr, ptr %from_msg.addr, align 8
  store ptr %1, ptr %from, align 8
  br label %while.cond

while.cond:                                       ; preds = %while.body, %entry
  br i1 false, label %while.body, label %while.end

while.body:                                       ; preds = %while.cond
  %call = call noundef nonnull align 1 dereferenceable(1) ptr @_ZN4absl12lts_2023080212log_internal10NullStream14InternalStreamEv(ptr noundef nonnull align 1 dereferenceable(1) %ref.tmp)
  br label %while.cond, !llvm.loop !78

while.end:                                        ; preds = %while.cond
  store i32 0, ptr %cached_has_bits, align 4
  %2 = load ptr, ptr %from, align 8
  %3 = getelementptr inbounds %"class.google::protobuf::EnumDescriptorProto_EnumReservedRange", ptr %2, i32 0, i32 1
  %_has_bits_ = getelementptr inbounds %"struct.google::protobuf::EnumDescriptorProto_EnumReservedRange::Impl_", ptr %3, i32 0, i32 0
  store ptr %_has_bits_, ptr %this.addr.i24, align 8
  store i32 0, ptr %index.addr.i25, align 4
  %this1.i26 = load ptr, ptr %this.addr.i24, align 8
  %4 = load i32, ptr %index.addr.i25, align 4
  %idxprom.i27 = sext i32 %4 to i64
  %arrayidx.i28 = getelementptr inbounds [1 x i32], ptr %this1.i26, i64 0, i64 %idxprom.i27
  %5 = load i32, ptr %arrayidx.i28, align 4
  store i32 %5, ptr %cached_has_bits, align 4
  %6 = load i32, ptr %cached_has_bits, align 4
  %and = and i32 %6, 3
  %tobool = icmp ne i32 %and, 0
  br i1 %tobool, label %if.then, label %if.end11

if.then:                                          ; preds = %while.end
  %7 = load i32, ptr %cached_has_bits, align 4
  %and2 = and i32 %7, 1
  %tobool3 = icmp ne i32 %and2, 0
  br i1 %tobool3, label %if.then4, label %if.end

if.then4:                                         ; preds = %if.then
  %8 = load ptr, ptr %from, align 8
  %9 = getelementptr inbounds %"class.google::protobuf::EnumDescriptorProto_EnumReservedRange", ptr %8, i32 0, i32 1
  %start_ = getelementptr inbounds %"struct.google::protobuf::EnumDescriptorProto_EnumReservedRange::Impl_", ptr %9, i32 0, i32 2
  %10 = load i32, ptr %start_, align 8
  %11 = load ptr, ptr %_this, align 8
  %12 = getelementptr inbounds %"class.google::protobuf::EnumDescriptorProto_EnumReservedRange", ptr %11, i32 0, i32 1
  %start_5 = getelementptr inbounds %"struct.google::protobuf::EnumDescriptorProto_EnumReservedRange::Impl_", ptr %12, i32 0, i32 2
  store i32 %10, ptr %start_5, align 8
  br label %if.end

if.end:                                           ; preds = %if.then4, %if.then
  %13 = load i32, ptr %cached_has_bits, align 4
  %and6 = and i32 %13, 2
  %tobool7 = icmp ne i32 %and6, 0
  br i1 %tobool7, label %if.then8, label %if.end10

if.then8:                                         ; preds = %if.end
  %14 = load ptr, ptr %from, align 8
  %15 = getelementptr inbounds %"class.google::protobuf::EnumDescriptorProto_EnumReservedRange", ptr %14, i32 0, i32 1
  %end_ = getelementptr inbounds %"struct.google::protobuf::EnumDescriptorProto_EnumReservedRange::Impl_", ptr %15, i32 0, i32 3
  %16 = load i32, ptr %end_, align 4
  %17 = load ptr, ptr %_this, align 8
  %18 = getelementptr inbounds %"class.google::protobuf::EnumDescriptorProto_EnumReservedRange", ptr %17, i32 0, i32 1
  %end_9 = getelementptr inbounds %"struct.google::protobuf::EnumDescriptorProto_EnumReservedRange::Impl_", ptr %18, i32 0, i32 3
  store i32 %16, ptr %end_9, align 4
  br label %if.end10

if.end10:                                         ; preds = %if.then8, %if.end
  br label %if.end11

if.end11:                                         ; preds = %if.end10, %while.end
  %19 = load i32, ptr %cached_has_bits, align 4
  %20 = load ptr, ptr %_this, align 8
  %21 = getelementptr inbounds %"class.google::protobuf::EnumDescriptorProto_EnumReservedRange", ptr %20, i32 0, i32 1
  %_has_bits_12 = getelementptr inbounds %"struct.google::protobuf::EnumDescriptorProto_EnumReservedRange::Impl_", ptr %21, i32 0, i32 0
  store ptr %_has_bits_12, ptr %this.addr.i22, align 8
  store i32 0, ptr %index.addr.i, align 4
  %this1.i23 = load ptr, ptr %this.addr.i22, align 8
  %22 = load i32, ptr %index.addr.i, align 4
  %idxprom.i = sext i32 %22 to i64
  %arrayidx.i = getelementptr inbounds [1 x i32], ptr %this1.i23, i64 0, i64 %idxprom.i
  %23 = load i32, ptr %arrayidx.i, align 4
  %or = or i32 %23, %19
  store i32 %or, ptr %arrayidx.i, align 4
  %24 = load ptr, ptr %_this, align 8
  %_internal_metadata_ = getelementptr inbounds %"class.google::protobuf::MessageLite", ptr %24, i32 0, i32 1
  %25 = load ptr, ptr %from, align 8
  %_internal_metadata_14 = getelementptr inbounds %"class.google::protobuf::MessageLite", ptr %25, i32 0, i32 1
  store ptr %_internal_metadata_, ptr %this.addr.i, align 8
  store ptr %_internal_metadata_14, ptr %other.addr.i, align 8
  %this1.i = load ptr, ptr %this.addr.i, align 8
  %26 = load ptr, ptr %other.addr.i, align 8
  store ptr %26, ptr %this.addr.i15, align 8
  %this1.i16 = load ptr, ptr %this.addr.i15, align 8
  store ptr %this1.i16, ptr %this.addr.i31, align 8
  %this1.i32 = load ptr, ptr %this.addr.i31, align 8
  %27 = load i64, ptr %this1.i32, align 8
  %and.i33 = and i64 %27, 1
  %tobool.i34 = icmp ne i64 %and.i33, 0
  br i1 %tobool.i34, label %if.then.i, label %_ZN6google8protobuf8internal16InternalMetadata9MergeFromINS0_15UnknownFieldSetEEEvRKS2_.exit

if.then.i:                                        ; preds = %if.end11
  %28 = load ptr, ptr %other.addr.i, align 8
  store ptr %28, ptr %this.addr.i18, align 8
  store ptr null, ptr %default_instance.addr.i, align 8
  %this1.i19 = load ptr, ptr %this.addr.i18, align 8
  store ptr %this1.i19, ptr %this.addr.i.i, align 8
  %this1.i.i = load ptr, ptr %this.addr.i.i, align 8
  store ptr %this1.i.i, ptr %this.addr.i29, align 8
  %this1.i30 = load ptr, ptr %this.addr.i29, align 8
  %29 = load i64, ptr %this1.i30, align 8
  %and.i = and i64 %29, 1
  %tobool.i = icmp ne i64 %and.i, 0
  br i1 %tobool.i, label %if.then.i20, label %if.else.i

if.then.i20:                                      ; preds = %if.then.i
  %call2.i21 = call noundef ptr @_ZNK6google8protobuf8internal16InternalMetadata8PtrValueINS2_9ContainerINS0_15UnknownFieldSetEEEEEPT_v(ptr noundef nonnull align 8 dereferenceable(8) %this1.i19)
  %unknown_fields.i = getelementptr inbounds %"struct.google::protobuf::internal::InternalMetadata::Container", ptr %call2.i21, i32 0, i32 1
  store ptr %unknown_fields.i, ptr %retval.i, align 8
  br label %_ZNK6google8protobuf8internal16InternalMetadata14unknown_fieldsINS0_15UnknownFieldSetEEERKT_PFS7_vE.exit

if.else.i:                                        ; preds = %if.then.i
  %30 = load ptr, ptr %default_instance.addr.i, align 8
  %call3.i = call noundef nonnull align 8 dereferenceable(24) ptr %30()
  store ptr %call3.i, ptr %retval.i, align 8
  br label %_ZNK6google8protobuf8internal16InternalMetadata14unknown_fieldsINS0_15UnknownFieldSetEEERKT_PFS7_vE.exit

_ZNK6google8protobuf8internal16InternalMetadata14unknown_fieldsINS0_15UnknownFieldSetEEERKT_PFS7_vE.exit: ; preds = %if.else.i, %if.then.i20
  %31 = load ptr, ptr %retval.i, align 8
  call void @_ZN6google8protobuf8internal16InternalMetadata11DoMergeFromINS0_15UnknownFieldSetEEEvRKT_(ptr noundef nonnull align 8 dereferenceable(8) %this1.i, ptr noundef nonnull align 8 dereferenceable(24) %31)
  br label %_ZN6google8protobuf8internal16InternalMetadata9MergeFromINS0_15UnknownFieldSetEEEvRKS2_.exit

_ZN6google8protobuf8internal16InternalMetadata9MergeFromINS0_15UnknownFieldSetEEEvRKS2_.exit: ; preds = %_ZNK6google8protobuf8internal16InternalMetadata14unknown_fieldsINS0_15UnknownFieldSetEEERKT_PFS7_vE.exit, %if.end11
  ret void
}

; Function Attrs: mustprogress uwtable
define linkonce_odr hidden void @_ZN6google8protobuf37EnumDescriptorProto_EnumReservedRange9MergeFromERKS1_(ptr noundef nonnull align 8 dereferenceable(32) %this, ptr noundef nonnull align 8 dereferenceable(32) %from) #4 comdat align 2 {
entry:
  %this.addr = alloca ptr, align 8
  %from.addr = alloca ptr, align 8
  store ptr %this, ptr %this.addr, align 8
  store ptr %from, ptr %from.addr, align 8
  %this1 = load ptr, ptr %this.addr, align 8
  %0 = load ptr, ptr %from.addr, align 8
  call void @_ZN6google8protobuf37EnumDescriptorProto_EnumReservedRange9MergeImplERNS0_11MessageLiteERKS2_(ptr noundef nonnull align 8 dereferenceable(16) %this1, ptr noundef nonnull align 8 dereferenceable(16) %0)
  ret void
}

; Function Attrs: mustprogress uwtable
define void @_ZN6google8protobuf37EnumDescriptorProto_EnumReservedRange5ClearEv(ptr noundef nonnull align 8 dereferenceable(32) %this) unnamed_addr #4 align 2 {
entry:
  %this.addr.i11 = alloca ptr, align 8
  %this.addr.i9 = alloca ptr, align 8
  %this.addr.i7 = alloca ptr, align 8
  %index.addr.i = alloca i32, align 4
  %this.addr.i4 = alloca ptr, align 8
  %this.addr.i = alloca ptr, align 8
  %this.addr = alloca ptr, align 8
  %cached_has_bits = alloca i32, align 4
  store ptr %this, ptr %this.addr, align 8
  %this1 = load ptr, ptr %this.addr, align 8
  store i32 0, ptr %cached_has_bits, align 4
  %0 = getelementptr inbounds %"class.google::protobuf::EnumDescriptorProto_EnumReservedRange", ptr %this1, i32 0, i32 1
  %_has_bits_ = getelementptr inbounds %"struct.google::protobuf::EnumDescriptorProto_EnumReservedRange::Impl_", ptr %0, i32 0, i32 0
  store ptr %_has_bits_, ptr %this.addr.i7, align 8
  store i32 0, ptr %index.addr.i, align 4
  %this1.i8 = load ptr, ptr %this.addr.i7, align 8
  %1 = load i32, ptr %index.addr.i, align 4
  %idxprom.i = sext i32 %1 to i64
  %arrayidx.i = getelementptr inbounds [1 x i32], ptr %this1.i8, i64 0, i64 %idxprom.i
  %2 = load i32, ptr %arrayidx.i, align 4
  store i32 %2, ptr %cached_has_bits, align 4
  %3 = load i32, ptr %cached_has_bits, align 4
  %and = and i32 %3, 3
  %tobool = icmp ne i32 %and, 0
  br i1 %tobool, label %if.then, label %if.end

if.then:                                          ; preds = %entry
  %4 = getelementptr inbounds %"class.google::protobuf::EnumDescriptorProto_EnumReservedRange", ptr %this1, i32 0, i32 1
  %start_ = getelementptr inbounds %"struct.google::protobuf::EnumDescriptorProto_EnumReservedRange::Impl_", ptr %4, i32 0, i32 2
  %5 = getelementptr inbounds %"class.google::protobuf::EnumDescriptorProto_EnumReservedRange", ptr %this1, i32 0, i32 1
  %end_ = getelementptr inbounds %"struct.google::protobuf::EnumDescriptorProto_EnumReservedRange::Impl_", ptr %5, i32 0, i32 3
  %6 = getelementptr inbounds %"class.google::protobuf::EnumDescriptorProto_EnumReservedRange", ptr %this1, i32 0, i32 1
  %start_2 = getelementptr inbounds %"struct.google::protobuf::EnumDescriptorProto_EnumReservedRange::Impl_", ptr %6, i32 0, i32 2
  %sub.ptr.lhs.cast = ptrtoint ptr %end_ to i64
  %sub.ptr.rhs.cast = ptrtoint ptr %start_2 to i64
  %sub.ptr.sub = sub i64 %sub.ptr.lhs.cast, %sub.ptr.rhs.cast
  %add = add i64 %sub.ptr.sub, 4
  call void @llvm.memset.p0.i64(ptr align 8 %start_, i8 0, i64 %add, i1 false)
  br label %if.end

if.end:                                           ; preds = %if.then, %entry
  %7 = getelementptr inbounds %"class.google::protobuf::EnumDescriptorProto_EnumReservedRange", ptr %this1, i32 0, i32 1
  %_has_bits_3 = getelementptr inbounds %"struct.google::protobuf::EnumDescriptorProto_EnumReservedRange::Impl_", ptr %7, i32 0, i32 0
  store ptr %_has_bits_3, ptr %this.addr.i9, align 8
  %this1.i10 = load ptr, ptr %this.addr.i9, align 8
  call void @llvm.memset.p0.i64(ptr align 4 %this1.i10, i8 0, i64 4, i1 false)
  %_internal_metadata_ = getelementptr inbounds %"class.google::protobuf::MessageLite", ptr %this1, i32 0, i32 1
  store ptr %_internal_metadata_, ptr %this.addr.i, align 8
  %this1.i = load ptr, ptr %this.addr.i, align 8
  store ptr %this1.i, ptr %this.addr.i4, align 8
  %this1.i5 = load ptr, ptr %this.addr.i4, align 8
  store ptr %this1.i5, ptr %this.addr.i11, align 8
  %this1.i12 = load ptr, ptr %this.addr.i11, align 8
  %8 = load i64, ptr %this1.i12, align 8
  %and.i = and i64 %8, 1
  %tobool.i = icmp ne i64 %and.i, 0
  br i1 %tobool.i, label %if.then.i, label %_ZN6google8protobuf8internal16InternalMetadata5ClearINS0_15UnknownFieldSetEEEvv.exit

if.then.i:                                        ; preds = %if.end
  call void @_ZN6google8protobuf8internal16InternalMetadata7DoClearINS0_15UnknownFieldSetEEEvv(ptr noundef nonnull align 8 dereferenceable(8) %this1.i)
  br label %_ZN6google8protobuf8internal16InternalMetadata5ClearINS0_15UnknownFieldSetEEEvv.exit

_ZN6google8protobuf8internal16InternalMetadata5ClearINS0_15UnknownFieldSetEEEvv.exit: ; preds = %if.then.i, %if.end
  ret void
}

; Function Attrs: mustprogress uwtable
define void @_ZN6google8protobuf37EnumDescriptorProto_EnumReservedRange8CopyFromERKS1_(ptr noundef nonnull align 8 dereferenceable(32) %this, ptr noundef nonnull align 8 dereferenceable(32) %from) #4 align 2 {
entry:
  %this.addr = alloca ptr, align 8
  %from.addr = alloca ptr, align 8
  store ptr %this, ptr %this.addr, align 8
  store ptr %from, ptr %from.addr, align 8
  %this1 = load ptr, ptr %this.addr, align 8
  %0 = load ptr, ptr %from.addr, align 8
  %cmp = icmp eq ptr %0, %this1
  br i1 %cmp, label %if.then, label %if.end

if.then:                                          ; preds = %entry
  br label %return

if.end:                                           ; preds = %entry
  call void @_ZN6google8protobuf37EnumDescriptorProto_EnumReservedRange5ClearEv(ptr noundef nonnull align 8 dereferenceable(32) %this1)
  %1 = load ptr, ptr %from.addr, align 8
  call void @_ZN6google8protobuf37EnumDescriptorProto_EnumReservedRange9MergeFromERKS1_(ptr noundef nonnull align 8 dereferenceable(32) %this1, ptr noundef nonnull align 8 dereferenceable(32) %1)
  br label %return

return:                                           ; preds = %if.end, %if.then
  ret void
}